(lp0
(lp1
S'negative'
p2
aS'I remember when Michelle Obama stepped off of Air Force one in a pair of shorts and some folks were saying how she had no class. But now naked pics of Melanie is ok.'
p3
aa(lp4
S'positive'
p5
aS'Melania will be a much better First Lady than Michelle Obama !'
p6
aa(lp7
S'negative'
p8
aS"Like it or not Trump was elected by the electoral college and he's what we're going to get.  He will be governed by rules  maybe for the first time in his life  as President.  Her?  I shake my head that she will be joining the ranks of our First Ladies.  It sickens me."
p9
aa(lp10
S'negative'
p11
aS"Not my first lady  hell not even my 3rd. Whoever voted for these people can have her... the very same people who seem to have problems foreign born  we'll all hail the first harlot in office"
p12
aa(lp13
S'positive'
p14
aS"History made her your first lady. No need for many negative comments. Just give her the freedom to be ur first lady. Respect her. She might turn out to be one of the dearest and best first lady in American history. Don't judge people with their past deeds. He/She who is without sin be the first to cast the stone."
p15
aa(lp16
S'negative'
p17
aS'They dragged Michelle Obama for wearing short sleeved \\\\ud83d\\\\udc57. It didn\'t matter that she is a well educated  well spoken  graceful  classy woman that has remained scandal free. Now  they are praising a centerfold who needs other people\'s brain to even think. This my friends  is called \\PRIVILEGE\\". I can go on  but refuse to waste anymore of my time."'
p18
aa(lp19
S'negative'
p20
aS"She is not the First Lady period!!! She is a green light Lady who used to give her body for money. Her body suppose to be her temple. Trump picked her after he was drunk  so they match each other.Not the First Lady of America. Shame on both of them. They're both Lust  vampires in the same world not our world.\\\\ud83d\\\\ude2c\\\\ud83d\\\\ude1c\\\\ud83d\\\\ude02\\\\ud83d\\\\ude2c\\\\ud83d\\\\ude02\\\\ud83d\\\\ude2c"
p21
aa(lp22
S'positive'
p23
aS"Wow  I am shocked at the number of terribly sexist  insulting and derogatory comments I've read against Mrs. Trump. I understand people are angry  but.... seriously????"
p24
aa(lp25
S'neutral'
p26
aS'3 drunk guys enterd a taxi. The taxi driver knew that they were drunk so he started the engine & turned it off again. Then said  \\We have reached your destination\\". The 1st guy gave him money & the 2nd guy said \\"Thank you\\". The 3rd guy slapped the driver. The driver was shocked thinking the 3rd drunk knew what he did. But then he asked \\"What was that for?\\". The 3rd guy replied  \\"Control your speed next time  you nearly killed us!\\""'
p27
aa(lp28
S'negative'
p29
aS"I'm so sorry but all the makeup  fancy clothes and jewelry DOES NOT make her a first lady. She is a clown to me. Their is not congruency with her actions. Plagiarism and nudity are things I do not want to show to my children."
p30
aa(lp31
S'negative'
p32
aS"Send her back to her country  she's an immigrant herself!! An embarrassment to the US with those nude pics  not my first lady. Not good  how can we explain this to our children and grandchildren."
p33
aa(lp34
S'negative'
p35
aS'Immigration needs to bring her in and have her explain why she lied during the interview process when applying for American citizenship.'
p36
aa(lp37
S'negative'
p38
aS"It's funny how the GOP is supposedly the party of family values  and always look down upon us liberals. Yet  they voted in the most disgusting man  with a woman of ill repute as a wife. \\\\ud83d\\\\ude02 I'm all for woman empowerment  however there are consequences to your actions. Here is to all GOP daughter at having a girl on girl action nude model as a role model  don't you dare be upset if they'd rather go Melania's way instead of college."
p39
aa(lp40
S'negative'
p41
aS'Omg  wait and see the uproar by republicans when she wears a sleeveless dress  just like they did when First Lady Michelle Obama did. They thought THAT was trashy....\\\\ud83d\\\\ude44smh!!!'
p42
aa(lp43
S'negative'
p44
aS'Looks like a cat  OH! maybe because she is one! He FOUND her online  and bought her for himself. That is why she is not bothered by many things her husband has said and done. #Asco #Nofirstlady'
p45
aa(lp46
S'positive'
p47
aS"As someone who voted for Hillary Clinton and is against everything Donald Trump stands for  I am so appalled by the comments I've read about Melania by many Clinton supporters  especially women. How can you sit there and be so harsh and judgmental towards another woman? And why is it that you are only upset when Trump makes disgusting comments about women  yet you feel that is absolutely okay for you to make just as disgusting remarks about his wife? Misogyny is misogyny  no matter whose side you are on. Please  stop being hypocrites and stop shaming her  and worse  stop objectifying her. Her career as a model (whether she posed nude or not) and her looks should NOT be used in political discussions. You can disagree with Trump without insulting and ridiculing this woman."
p48
aa(lp49
S'positive'
p50
aS"Because I'm sure all the presidents that have had affairs are much better than this.... right? Not to mention most leaders of the states. Not defending her  I'd love to see what she can do with the title she has now and hoping her husband lets her speak at least because she looks like she's been under his shoe for a while.... #missingtheReaganEra #TrueFirstLadyReagan"
p51
aa(lp52
S'negative'
p53
aS"How can anyone tell their daughters that this is who they should aspire to be. This mother  wife has allowed her husband to speak of women like a piece of property or trash. She has no backbone  she's not  American. She is not the First Lady of the country where my parents and I were born period. I will never recognize her idiot husband and her as the representatives of my country the United States of America."
p54
aa(lp55
S'negative'
p56
aS"She's been out there for everyone to see for a very long time  the lady stripped naked in front cameras for magazines for money."
p57
aa(lp58
S'negative'
p59
aS'Amazing not so many years ago we were worried about whether or not someone inhaled...now the pres elect has been married several times...children with different women...naked pics of wife for all to see....'
p60
aa(lp61
S'negative'
p62
aS"Dems and the rigging of polls  stealing yard signs  inciting violence  threatening physical harm  falsifying voter registrations  manufacturing fraudulent accusations  firebombing a campaign office  and blaming Russia for your candidate's incompetence and criminality...and now you Whimper and CRY? You brought this onto yourself and it unlikely you will receive any consolation or comfort because  quite frankly  your behaviors are undeserving of empathy. Suffer Snow Flakes."
p63
aa(lp64
S'positive'
p65
aS"Liberals make me laugh a good 100 times a day... Your mostly all a bunch of weirdos who are really the dumbest bunch of whiners. \\nOnly thing I'm gonna say is don't liberals support women and what they choose to do with there body? \\nEither you aren't truly liberal  or like I said your just the real dumb deplorables who just got TRUMPED! \\nEither way your dose of reality is coming and crying ain't gonna work.\\nRemember when talking about woman's rights it's liberals pro body pro choice  pro pornography  pro abortion  etc \\nSo STFU please about Melania and her pics u clueless Know it alls!\\nI also guess your no better a bully either ;)"
p66
aa(lp67
S'positive'
p68
aS'Prettiest First Lady ever and a great mother for her son. The election is over so people should come together and move forward. Vote him out in four years if you do not like his tenure as president.'
p69
aa(lp70
S'positive'
p71
aS"Give her a chance  stop the Hate for gosh sakes! She is no Michelle Obama But Michelle Obama was no Nancy Reagan or Betty Ford. Don't compare  those were some fine first ladies. Stop envisioning and live in the present. Stop the HATE you can leave if you so choose to degrade our Nation and it's leader. We accepted Obama for 8 years  and that wasn't easy for some of us."
p72
aa(lp73
S'positive'
p74
aS'Hollywood parades out half naked men and women  encourages youth to follow their lead on the streets everywhere and then CNN denigrates Melania for being a model. Can you say fn hypocrite?'
p75
aa(lp76
S'negative'
p77
aS'The country\'s FLOTUS went from being a highly educated & career oriented repected woman to being a so so model who appears to have only mastered the skills of being the \\pretty wife\\" of the wealthy business man. Soo the message to all little girls of this country is: always stay pretty  pretend your dumbfounded  marry a rich guy & everything will be okay...... Lakia McMillan"'
p78
aa(lp79
S'negative'
p80
aS"Mitchelle Obama continues to be my First Lady even if her husband's term of presidency is over. Knowledge  self confidence  attractiveness and strength shines in that educated self-made black pearl   Mitchelle Obama."
p81
aa(lp82
S'negative'
p83
aS".....and there you have it. She can't even answer a question correctly were one can understand. This is what Americans select as the First Lady to represent our Country. Waoooo You can speak 4 or 5 languages and.....tutor is on the making because it takes class and great discipline to fit the shoes if the First Lady. Good luck."
p84
aa(lp85
S'positive'
p86
aS'AimeeTobing wants free health care and things free.. like Denmark.. she has a lot of room to talk!! Women need to know that no matter what your past is.. you can rise up!! Everyone is expected to accept the LGBT community.  Give her a chance.. America is about being free!'
p87
aa(lp88
S'negative'
p89
aS"I am already embarrassed for Trump's wife when she tries to fulfill Michele Obama's role. Melania Trump has no idea and no education to be in any form of politics. Poor thing!"
p90
aa(lp91
S'positive'
p92
aS'I have a lot of respect for this woman and the position she is in. I feel that she is being overlooked because people view her as Trump\'s \\arm candy\\" but I believe she has much more to offer than people will give her credit for!"'
p93
aa(lp94
S'positive'
p95
aS"Do any of you people ever read behind the news. About what's happening on pedophile island and Anthony Weiner in the Clintons and why they are covering up all the dirty emails. It's about having sex with small children read your books people. Look up Anthony Weiner. The Trumps are Saints compared to them."
p96
aa(lp97
S'negative'
p98
aS'Such a scary smile...she is supposed To be an immigrant (as all Americans are actually) she is American only since 2008 and she is living with a guy who wants no immigrant in the country come oooooon'
p99
aa(lp100
S'positive'
p101
aS"I get that she posed nude but seriously isn't that being judgemental..billclinton being president can have countless mistresses and people are judging and shaming her??also im no trump supporter but give him a chance for now..hilary was given a chance-to handle foreign policy and she failed miserably and we all know about her emails..she made a lot of mistakes..stop whining and accept it"
p102
aa(lp103
S'negative'
p104
aS'I have been trying very very hard to rationalize all this. She may have worked very hard too for her life and career... but no... she will not bring forth the diversity story in the right angle. Nice try but no...'
p105
aa(lp106
S'negative'
p107
aS"The empress (first lady) has no clothes or morals!!! She is a now going to represent our country  A person who worked as an illegal immigrant  a nude model in lesbian scenes  and a gold-digger who can't speak proper English. This is the role model the Conservatives voted in! This the example for our daughters. In addition to the orange one  this is a global embarrassment!"
p108
aa(lp109
S'negative'
p110
aS"I just don't have the energy to beat her up. She came from nothing and married a billionaire and now she is kind of thrown into this. She didn't exactly help him get elected."
p111
aa(lp112
S'negative'
p113
aS"She is an immigrant people  !!!! Is she going to be sent back to Slovakia  come on can't even speak proper English !!!! And has nude pictures on a magazine !!!'n"
p114
aa(lp115
S'positive'
p116
aS"WOW. JUST. WOW. It's amazing all the stones being thrown and how judgmental and unaccepting you're all being...and sadly it's ONLY because they aren't affiliated with your party."
p117
aa(lp118
S'negative'
p119
aS"She isn't First Lady material at all. I don't see anything that she could teach our children of today. She is not a role model. Maybe Trump will Deport her"
p120
aa(lp121
S'positive'
p122
aS'no matter what you do to her it will not change the fact that she is the new First Lady of the United states of America thats all end of conversation.'
p123
aa(lp124
S'negative'
p125
aS"I wonder of she'll be the 1st one over the wall? She did after all break the law and worked without the right visa and that broken english  you can't Polish the Tramp out of Trump.. \\\\ud83d\\\\ude02\\\\ud83d\\\\ude02\\\\ud83d\\\\ude02\\\\ud83d\\\\ude02"
p126
aa(lp127
S'negative'
p128
aS'She is beautiful but her character is not. Married an old misogynistic man for money. She is no example for young women and girls looking up to her.'
p129
aa(lp130
S'negative'
p131
aS'The same illegal immigrant who worked in the US for weeks with no visa is helping her husband build a wall to keep others like HER out.'
p132
aa(lp133
S'negative'
p134
aS"And yet she was able to vote I thought you had to be American citizen to vote what rules change for whatever your needs we don't even have a true democracy anymore or did she buy that too"
p135
aa(lp136
S'negative'
p137
aS"So what?! I will not watch any of her speeches  I just can't take the speech patterns. Annoying. Having an accent is one thing  broken english is not acceptable  IMHO."
p138
aa(lp139
S'positive'
p140
aS"well I'm Canadian and I don't have a voice in the results however as a human being I have an opinion and I think she's as gorgeous as Mrs Obama  and once she gets the hang of things will most likely want to be involved in some way with charities close to her heart !"
p141
aa(lp142
S'negative'
p143
aS'Just thinking back when FLOTUS had her arms out(showing)! And everyone was in an uproar! Now this \\chick\\" has \\"bared\\" it all! What a disgrace!"'
p144
aa(lp145
S'negative'
p146
aS'First Lady my foot I wud pay no respect to an ex-nude model who knows nothing but to flash her fake personality in front of camera'
p147
aa(lp148
S'positive'
p149
aS"On the other hand...perhaps Melania has matured and might actually have a lot to offer. Don't judge prematurely. Yes  I'm Canadian. Sorry...."
p150
aa(lp151
S'negative'
p152
aS"This is \\\\ud83d\\\\ude2d you'll better not say anything when Kim K becomes our First Lady in 2020 at least she is a US born citizen.if you know what I mean"
p153
aa(lp154
S'negative'
p155
aS"She's a tramp... very  very distant from the classy Michelle Obama. It's gonna be a circus in the white house. Absolutely disgusted by all of them."
p156
aa(lp157
S'negative'
p158
aS"This woman is the epitome of what is collectively wrong with the psyche of women today and the struggle of all of our mothers and grandmother's exploitation and abused endured on the past. She is an object not a lady."
p159
aa(lp160
S'negative'
p161
aS'The first FLOTUS ever posed and shared her nude poses with America and the world. History is made indeed :('
p162
aa(lp163
S'negative'
p164
aS'Russia is looking and laughing at you Americans....  We Africans thought you folks are more civilise. Now I see  civilization is not about buildings and system  it is a state of mind and a steady way of life.....'
p165
aa(lp166
S'negative'
p167
aS"Well they say if you don't take care of your home there's always a hoe around the corner wanting to do it for you! Welcome first hoe i mean Lady! HA!"
p168
aa(lp169
S'positive'
p170
aS'So easy to condemn  look in your glass house before you throw a stone! She is beautiful  I love my body! She has nothing to be ashamed of!'
p171
aa(lp172
S'positive'
p173
aS'So ironic to see all the feminist \\women empowerment\\"/\\"women\'s rights\\" Hillary supporters call Melania Trump trashy because she posed top-less as a model."'
p174
aa(lp175
S'negative'
p176
aS"It's never going to be back to normal!!! But sad when u let the First Lady be immigrants and to pose nude in photo shot.. Truly sad.."
p177
aa(lp178
S'positive'
p179
aS"Aimee so what you're saying is we shouldn't judge Hilary based on her husband's behaviour but judging Melania for that is ok? Think about that."
p180
aa(lp181
S'negative'
p182
aS"As Trump excepted his victory.He stood in front of America   gave his victory speech. With his SON at his side. NOT with the future first lady. She was off to the side.In a women`s proper 'place'. Ha."
p183
aa(lp184
S'negative'
p185
aS'She *does* have something in common with former Republican First Lady\'s.. We had Barbara Bush  Laura Bush  and now Melania \\I show my Bush\\" Trump."'
p186
aa(lp187
S'neutral'
p188
aS'What happened to you America? You used to be tolerant  patriotic and united. Today you are an embarrassment to those who we remember tomorrow  those who died for your right to vote. Thousands of men died so you could burn those flags and scream \\this is what democracy looks like\\".  We  the rest of the world are watching and wondering what the hell has infected you?"'
p189
aa(lp190
S'positive'
p191
aS"LOL @ the liberal hypocrisy of a female empowering herself by showing off her body. Haven't I seen a lot of ugly  rotund feminazis doing that lately? People are just jealous that she is beautiful and feminine."
p192
aa(lp193
S'neutral'
p194
aS'The only person witout morals values is you aideen  if one person can change what you think. You dont have any faith in yourself.'
p195
aa(lp196
S'positive'
p197
aS'Well there was also Marilyn Monroe and Monica Lewinsky. No president has been perfect. And Michelle had WAY too much to say. Sometimes I think she forgot she was only the wife of the president. And off topic here but how in the hell is her mother getting $100 000 a month from our lovely government??'
p198
aa(lp199
S'negative'
p200
aS'I\'m not impressed. I don\'t think she\'ll accomplish much as First Lady. Michelle Obama  Laura Bush  yes...Hillary Clinton  Barbara Bush  and Nancy Reagan. These were very productive and inspiring First Ladies. Melania\'s poorly rehearsed speech of  \\I want to end cyberbullying\\" didn\'t strike a cord. It\'s like she didn\'t hear her husbands rhetoric over the past year."'
p201
aa(lp202
S'positive'
p203
aS'YES!!!! \\\\ud83c\\\\uddfa\\\\ud83c\\\\uddf8\\\\ud83c\\\\uddfa\\\\ud83c\\\\uddf8\\\\ud83c\\\\uddfa\\\\ud83c\\\\uddf8\\\\ud83c\\\\uddfa\\\\ud83c\\\\uddf8\\nBut yet some people want to say Trump is racist \\\\ud83e\\\\udd14\\\\ud83e\\\\udd14\\\\ud83e\\\\udd14\\n\\nTheir is a big difference between an illegal immigrant and an immigrant Citizen.'
p204
aa(lp205
S'negative'
p206
aS"She will never be my First Lady. I'm waiting for the first nude centerfold in the Lincoln Bedroom"
p207
aa(lp208
S'negative'
p209
aS'This chick COULD NEVER EVER COME CLOSE TO THE CLASS OF MY FIRST LADY MICHELLE OBAMA ! \\n#giggles'
p210
aa(lp211
S'negative'
p212
aS'We need to see her birth certificate. It has to be the original not a photo copy'
p213
aa(lp214
S'negative'
p215
aS"You can't compare where you don't compete!!! Michelle Obama \\\\ud83d\\\\udc4f\\\\ud83d\\\\udc4f\\\\ud83d\\\\udc4f\\\\u2764\\\\ufe0f"
p216
aa(lp217
S'negative'
p218
aS'Someone said she will be better than Michelle hellllllllllllllllllllllllllllllllllllllllllllllllno wtf'
p219
aa(lp220
S'neutral'
p221
aS'I don\'t think Bill would have really made peace with the \\First Gentleman/Husband/Dude\\" title."'
p222
aa(lp223
S'negative'
p224
aS"It's the daughter of a commie party head. She has government experience alright  wait a second. \\\\ud83e\\\\udd14"
p225
aa(lp226
S'negative'
p227
aS'She a hoe and on top of that how tf she gonna be the First Lady of our country and we can only understand every other word coming out of her mouth!? TF'
p228
aa(lp229
S'negative'
p230
aS'Michelle Obama will forever hold the title of best First Lady not just because of her beauty but of her intellect as well.'
p231
aa(lp232
S'negative'
p233
aS'We are the first country to have a blow up doll as a first lady. Yet we impeached Clinton for lying about getting some blow jobs. Good job'
p234
aa(lp235
S'negative'
p236
aS"And the first to lie about her education.. And the first to plagiarize someone else's speech ... And was she legal?"
p237
aa(lp238
S'negative'
p239
aS"Poor dear...but where's the nope she isn't my first lady button!"
p240
aa(lp241
S'negative'
p242
aS'And she barely speaks English  but Trumps language isnt much better!'
p243
aa(lp244
S'negative'
p245
aS'She does not compare to any woman of class. Can you see her at a 1st ladies luncheon.'
p246
aa(lp247
S'negative'
p248
aS"It's great that she did a playboy shoot. I can finally jerk off to a first lady without having to feel guilty about it."
p249
aa(lp250
S'negative'
p251
aS'But we never had a First Lady who was a pole dancer or appeared totally naked in newspapers and on social media\\\\ud83d\\\\ude21\\\\ud83d\\\\ude21\\\\ud83d\\\\ude21'
p252
aa(lp253
S'negative'
p254
aS"Nope. She's not my first lady. And he is not my president. I do not plan on adhering to any of his policies and if that gets me put in jail I'm more than okay with that."
p255
aa(lp256
S'positive'
p257
aS"Okay CNN enough already..what's next you going to start on his 10 year old son...you people are disgusting"
p258
aa(lp259
S'negative'
p260
aS"LOL Naked pics I'm sure people seen her before LOL NO SURPRISE TO AMERICA WELCOME FIRST LADY? Lol this country I swear but hey any things possible Next president will be a FEMALE WELL A TRANSGENDER 2020 to be continued! It don't matter all that matters is that Donald trump be a president for 4 yrs I guess"
p261
aa(lp262
S'negative'
p263
aS'How nice her 10 year old son has a cavier face scrub while others can hardly afford cereal great example'
p264
aa(lp265
S'negative'
p266
aS'That ex nude model becomes the first lady OMG speechless \\\\ud83d\\\\ude36. What the hell is going on?'
p267
aa(lp268
S'positive'
p269
aS"She's so hot for a first lady and this thread is filled with bitterness and envy. Go Melania!!"
p270
aa(lp271
S'negative'
p272
aS"Sorry  I prefer First Ladies who keep their dern clothes on. We've already gotten to know her a bit too well."
p273
aa(lp274
S'neutral'
p275
aS'Actually she would be the 9th foreign born first lady...the first 8 ladies were born while still under English rule.'
p276
aa(lp277
S'negative'
p278
aS'What kind of role model will she be for our yours girls. This lady those not deserve to be our First Lady. Is a shame.'
p279
aa(lp280
S'negative'
p281
aS"She is his first lady not America's. She's more like an embarrassment and disgrace to our country."
p282
aa(lp283
S'negative'
p284
aS'she is 46 years old looking like she is 60.....yuck!'
p285
aa(lp286
S'negative'
p287
aS"They had a problem with Michelle showing her arms but this air head posed nude and that's ok"
p288
aa(lp289
S'negative'
p290
aS'You mean first robot. Best soon to be released  4 yr comedy/horror TV reality show!'
p291
aa(lp292
S'negative'
p293
aS"Immigrant stripper who married up?\\nGuess that's the new American drea."
p294
aa(lp295
S'negative'
p296
aS"No  she isn't the first lady. she is always be who she is  a gold digger."
p297
aa(lp298
S'negative'
p299
aS'She will be the first sex worker to become the First Lady  at least there is one thing that is liberal & open about Trump.'
p300
aa(lp301
S'negative'
p302
aS"Nope. Not a chance. She's as bad as her husband. The true deplorables."
p303
aa(lp304
S'negative'
p305
aS'I will not accept any of this until the final and official electoral vote.'
p306
aa(lp307
S'positive'
p308
aS'I so welcome you as our first lady! Congratulations and God be with you!'
p309
aa(lp310
S'positive'
p311
aS'What a classy woman ! She will make a perfect first lady.'
p312
aa(lp313
S'negative'
p314
aS"so she's the second foreign born but I think she's still the first ESCORT"
p315
aa(lp316
S'negative'
p317
aS"She def. Isn't first llady material n never will b... Tramp!!!"
p318
aa(lp319
S'positive'
p320
aS"Wow these comments coming from progressive tolerant fair liberals is quite shocking. All I'm hearing is: ill never give her a chance  she's a stripper  Michelle is a better human. Guys she does have feelings"
p321
aa(lp322
S'negative'
p323
aS'Very unladylike pass  no college education  inability to publicly speak... A HUGE step down from Laura and Michelle.'
p324
aa(lp325
S'positive'
p326
aS"Love seeing all these liberal idiotic comments. Please keep them coming. They're very entertaining. \\\\ud83d\\\\ude02"
p327
aa(lp328
S'negative'
p329
aS'First  First Lady without a college degree  First Lady who posed nude  First Lady who is as dumb as a rock. This is the First Lady little girls will look to??'
p330
aa(lp331
S'negative'
p332
aS'Hmmm..the second foreign born ...and the absolute first to have posed nude!...I tell yuh..only in merica'
p333
aa(lp334
S'negative'
p335
aS'She is a walking  breathing (hardly thinking) representation of Trump supporters - hollow  uneducated and foreign to the free world.'
p336
aa(lp337
S'negative'
p338
aS"YOUR FIRST LADY AMERICA THE FORMER STRIPPER ......THIS IS A SLAP IN AMERICA'S FACE WHAT OR WHY WOULD THIS BE A ROLE MODEL YOU SHOULD LOOK UP TO COMPARED TO THE MANY HONORABLE FIRST LADIES WE HAD IN THE PAST?????"
p339
aa(lp340
S'negative'
p341
aS'Poor woman. I wonder how many meds she takes to keep up appearances.'
p342
aa(lp343
S'positive'
p344
aS'Blessed are we to have a Female 1st Lady... She is Beautiful and well suited to a multi-cultural \\country.\\""'
p345
aa(lp346
S'negative'
p347
aS'Melania an Ex-stripper...now the mother of all Americans..\\\\ud83d\\\\ude1d\\\\ud83d\\\\ude1d\\\\ud83d\\\\ude1d\\\\ud83d\\\\ude1d. Indeed America is the land of all dreams'
p348
aa(lp349
S'negative'
p350
aS'Ughhhhh really ? How can I explain my daughter when she finds out she was butt naked in mags   working illegally in the USA and married a carrot.'
p351
aa(lp352
S'negative'
p353
aS'I will never stand for president hump. My sense of fairness and decency do not permit me to accept hate.'
p354
aa(lp355
S'positive'
p356
aS"She's beautiful and intelligent.. proud to say she's our First Lady!"
p357
aa(lp358
S'negative'
p359
aS"She'll be in charge of all the adult entertainment for the diplomats around the world."
p360
aa(lp361
S'positive'
p362
aS'I am sure she will do well people need to accept it and quit complaining'
p363
aa(lp364
S'negative'
p365
aS'What a sham....they left out all the nude pics....some first lady!'
p366
aa(lp367
S'negative'
p368
aS"No thank you pron actors or model aren't fit to be first lady of America."
p369
aa(lp370
S'positive'
p371
aS'Gorgeous lady. Perfectly fits as a First Lady. Good Luck and God Bless!!!'
p372
aa(lp373
S'negative'
p374
aS"She ain't my first lady and she dont represent me or my people"
p375
aa(lp376
S'neutral'
p377
aS'And for some very young people she will be the first non-transgender first lady in their lifetime.'
p378
aa(lp379
S'negative'
p380
aS'First bimbo more like it\\nBrainless  and plastic  she serves little purpose'
p381
aa(lp382
S'negative'
p383
aS"Will Ramirez why don't you leave!! What makes you less moronic. Traditional values have never included a naked First Lady"
p384
aa(lp385
S'negative'
p386
aS'Soo proud a stripper playboy centerfold is my USA representative to the world! Oh wait we are already being laughed at  smh'
p387
aa(lp388
S'positive'
p389
aS'She seems like an incredible role model for women with her drive  her successful career  her excellent care and priorities as a mother  and her calming elegance.'
p390
aa(lp391
S'negative'
p392
aS'Every time one looks at her...no matter if she has clothes on...will see a naked body.'
p393
aa(lp394
S'negative'
p395
aS'She is nothing but a bag of leaves no competition for Michelle Obama'
p396
aa(lp397
S'positive'
p398
aS'Finally  a First Lady that I can love and respect!\\\\u2764\\\\ufe0f\\\\ud83c\\\\uddfa\\\\ud83c\\\\uddf8\\\\u2764\\\\ufe0f'
p399
aa(lp400
S'negative'
p401
aS"Too much botox  looks spycho. Doesn't take aging very well. Will Crack from stress."
p402
aa(lp403
S'negative'
p404
aS'And the first one whose body the entire world has seen naked... Ugh!'
p405
aa(lp406
S'negative'
p407
aS"Now Mexico and USA have idiots for first Lady's I bet they will be very good BFFs \\\\ud83d\\\\ude02"
p408
aa(lp409
S'positive'
p410
aS'I like her she stand for the truth even her husband the president has his bad temper n attitude she is here to support her ..'
p411
aa(lp412
S'positive'
p413
aS'Go Melanie. Congratulations to you  your husband and your family.'
p414
aa(lp415
S'negative'
p416
aS'And the first sl*t who become 1st lady . Congratulations!'
p417
aa(lp418
S'negative'
p419
aS'Will she help all illegal. .to become legal.\\nShe has experience how to do it right..'
p420
aa(lp421
S'positive'
p422
aS'She is going to a very classy First Lady unlike Michelle obumer no class'
p423
aa(lp424
S'negative'
p425
aS'I hope Michelle tells her she needs to wear appropriate clothes!'
p426
aa(lp427
S'negative'
p428
aS"She has to earn her keep - she probably married him for his $  can't think why anyone would marry him otherwise."
p429
aa(lp430
S'negative'
p431
aS'Excuse me while I puke... even if I accept him as president  that woman is not first lady material.'
p432
aa(lp433
S'negative'
p434
aS'The difference between Michelle Obama and Malania is the same difference between Class and crass.'
p435
aa(lp436
S'positive'
p437
aS'A lot of you are disappointing. Please give our current and future First Lady the respect \\\\u270a they deserve.'
p438
aa(lp439
S'negative'
p440
aS'I tgought there where going to  look into to her imagration Did she marry Trump just to get a green card'
p441
aa(lp442
S'positive'
p443
aS'the most gorgeous 1st lady ever     Donald trump mr.president u are a lucky lucky man'
p444
aa(lp445
S'negative'
p446
aS"Yes we have! And we've seen more of her ( literally ) than we should!"
p447
aa(lp448
S'negative'
p449
aS'And her first speech as formal first lady is HOW TO GET NUDE IN FRONT OF CAMERAS \\\\ud83c\\\\udfa5 seriously this is an insult to america\\\\ud83d\\\\ude12'
p450
aa(lp451
S'negative'
p452
aS'Plagiarism is no longer a reason to fail your next class paper...Why? Because if the First Lady can do it so can you!!!'
p453
aa(lp454
S'negative'
p455
aS'Oh gosh! White House gonna become a tramp house like Melania (TRAMP)'
p456
aa(lp457
S'negative'
p458
aS'Already looking up her naked pictures... very nice \\\\ud83d\\\\ude08'
p459
aa(lp460
S'negative'
p461
aS"Really classy lady who once posed nude ...she'll go down as a real trail blazer I'm sure...pathetic."
p462
aa(lp463
S'negative'
p464
aS'What education and studies does she have?? Marrying a rich old man and being his porno star??? Thats what represents all the americans today.'
p465
aa(lp466
S'negative'
p467
aS'Not mine !\\nShe is nasty not a lady no matter how much they pay fo cover her up now.'
p468
aa(lp469
S'negative'
p470
aS"Well John Quincy Adams' wife was London-born. So she was English  albeit an immigrant"
p471
aa(lp472
S'positive'
p473
aS"Do your best. Every body talking like if them is angel. Monkey don't see they own tail."
p474
aa(lp475
S'negative'
p476
aS"Can't call her the first or the last . Lady quite not one!!!!"
p477
aa(lp478
S'negative'
p479
aS"She need to be put on the other side of that wall that he trying to put up cause she don't need to be over here are in the white house are him"
p480
aa(lp481
S'positive'
p482
aS'Geez a whole bunch of judgemental and bitter people commenting on here. Making yourselves look bad.'
p483
aa(lp484
S'neutral'
p485
aS"Ohhhh my gosh... I don't think there is anything that would make people happy!!   Gosh..."
p486
aa(lp487
S'negative'
p488
aS'Would be nice if the first lady of the US could speak (unaccented) English.'
p489
aa(lp490
S'negative'
p491
aS"It's all one big 'Joke'... As well as a horrible Nighrmare."
p492
aa(lp493
S'negative'
p494
aS"No Thank You and I'm not even from the US  this election was so wrong on many levels."
p495
aa(lp496
S'negative'
p497
aS"She's not my a lady . \\nA woman like that doesn't belong at the White House but in  a striped club"
p498
aa(lp499
S'negative'
p500
aS'Using the word \\lady\\" quite loosely these days!!   Having the Oval Office fitted for the striper pole soon no doubt."'
p501
aa(lp502
S'negative'
p503
aS'No. Not in the same class as previous first ladies and never will be. She took her clothes off for a living. She brings shame to the position of first lady.'
p504
aa(lp505
S'negative'
p506
aS'If she has any more plastic surgery her eyes will be on the side of head like a fish.'
p507
aa(lp508
S'positive'
p509
aS'she is beautiful  and i wish her nothing but the best in a very high pressure job'
p510
aa(lp511
S'negative'
p512
aS'i googled her and got nudes. wtf america. u go from majestic michelle to THIS? tf is wrong w u.'
p513
aa(lp514
S'negative'
p515
aS'Wonder what color she is going to paint the white house lol'
p516
aa(lp517
S'negative'
p518
aS'I have Eleanor Roosevelt quotes on my fridge...Should I leave space for Melania?'
p519
aa(lp520
S'negative'
p521
aS'Thanks for posting this. It made me laugh for the first time since Tuesday.'
p522
aa(lp523
S'negative'
p524
aS'So a foreigner can be the First Lady but the \\president \\" does not want foreigners in America?! Huh?."'
p525
aa(lp526
S'negative'
p527
aS"And the first one we got to see in her birthday suit. I believe we'll see a lot of firsts here."
p528
aa(lp529
S'negative'
p530
aS'Hahhahaahha i dont know whether to laugh or scream either way its comical'
p531
aa(lp532
S'negative'
p533
aS"For someone who hates foreigners and immigrants he sure marries enough of them. He's lucky someone let her in."
p534
aa(lp535
S'neutral'
p536
aS'She looks like a character out off that Team America movie. \\Team America F@ck yeah\\"! \\\\ud83c\\\\uddfa\\\\ud83c\\\\uddf8\\\\ud83d\\\\udebd"'
p537
aa(lp538
S'negative'
p539
aS'Give Donald a chance you might just be suprised get over it'
p540
aa(lp541
S'negative'
p542
aS"Omg that's the first lady ... Mmmmm I did not recognize her  she's wearing clothes...... Jaja"
p543
aa(lp544
S'negative'
p545
aS'Bunch of foreigners taking over our country! (irony implied)'
p546
aa(lp547
S'neutral'
p548
aS'Not an easy job for her  specially after Michelle Obama. Curious to see what she will bring.'
p549
aa(lp550
S'positive'
p551
aS'This beautiful First Lady will enrage the jealous bones of many FAT bodies!'
p552
aa(lp553
S'positive'
p554
aS'As long as your arms are not out Republicans should be okay with her...'
p555
aa(lp556
S'negative'
p557
aS"I can't wait for this  might as well go to a strip club and pick out a first lady."
p558
aa(lp559
S'negative'
p560
aS'Is no one else gonna point out she looks like an evil villain wife'
p561
aa(lp562
S'positive'
p563
aS"I don't care what people saying. She's the new First Lady. Deal with it."
p564
aa(lp565
S'positive'
p566
aS"AMERICA is definitely changing        it'll never be the same."
p567
aa(lp568
S'positive'
p569
aS'As Jesus said he who is with out sin cast the first stone .\\\\ud83d\\\\ude4f\\\\ud83c\\\\udffb\\\\u270c\\\\ufe0f\\\\ufe0f'
p570
aa(lp571
S'negative'
p572
aS"They'll be waving her naked pictures at the inauguration."
p573
aa(lp574
S'negative'
p575
aS'Why move to Canada. We can fight for what we want in a positive way!!!!\\n\\nJust sign the petition and stop Trump from becoming president.\\n\\nOn December 19  the Electors of the Electoral College will cast their ballots. If they all vote the way their states voted  Donald Trump will win. However  they can vote for Hillary Clinton if they choose. Even in states where that is not allowed  their vote would still be counted  they would simply pay a small fine.\\nWe are calling on the Electors to ignore their states\' votes and cast their ballots for Secretary Clinton. Why?\\nMr. Trump is unfit to serve. His scapegoating of so many Americans  and his impulsivity  bullying  lying  admitted history of sexual assault  and utter lack of experience make him a danger to the Republic. \\nSecretary Clinton WON THE POPULAR VOTE and should be President. \\n Hillary won the popular vote. The only reason Trump \\won\\" is because of the Electoral College.\\nBut the Electoral College can actually give the White House to either candidate. So why not use this most undemocratic of our institutions to ensure a democratic result?\\nSHE WON THE POPULAR VOTE.\\nThere is no reason Trump should be President.\\n\\"It\'s the \'People\'s Will\'\\"\\nNo. She won the popular vote.\\n\\"Our system of government under our Constitution says he wins\\"\\nNo. Our Constitution says the Electors choose.\\n\\"Too many states prohibit \'Faithless Electors\'\\"\\n24 states bind electors. If electors vote against their party  they usually pay a fine. And people get mad. But they can vote however they want and there is no legal means to stop them in most states.\\n\\nPLEASE SIGN AND SHARE! This is a petition!!!!\\n\\nhttps://www.change.org/p/electoral-college-electors-electoral-college-make-hillary-clinton-president-on-december-19?recruiter=627323447&utm_source=share_petition&utm_medium=facebook&utm_campaign=autopublish&utm_term=mob-xs-no_src-no_msg"'
p576
aa(lp577
S'negative'
p578
aS"From elite escort service to White House. Now you can send your daughters to a local gentlemen's club to learn life skills."
p579
aa(lp580
S'positive'
p581
aS'She is lovely  beautiful  classy   elegant...ready for the whitehouse!'
p582
aa(lp583
S'neutral'
p584
aS'I guess Jackie Kennedy was the \\First Lady\\" then because she came before MM?"'
p585
aa(lp586
S'negative'
p587
aS'This woman is a history maker. She will officially become the First Thot of the United States (FTOTUS). :)'
p588
aa(lp589
S'negative'
p590
aS'BUT....the first to be naked on camera....this country really has become a joke!!'
p591
aa(lp592
S'negative'
p593
aS'Not my president and not my first nude model that barely speaks English First Lady.'
p594
aa(lp595
S'positive'
p596
aS"No?! Lol   it's done. She IS the first lady. So many butt hurt people today  lol. Calm tf down. \\\\ud83d\\\\ude02\\\\ud83d\\\\ude02\\\\ud83d\\\\ude02"
p597
aa(lp598
S'negative'
p599
aS'The ultimate gold digger! An example to talentless women everywhere!'
p600
aa(lp601
S'positive'
p602
aS'Classy lady compared to what we`ve had the past 8 years.  No doubt she has always been proud to be an American citizen unlike Michelle.'
p603
aa(lp604
S'negative'
p605
aS"Not my First Lady! She is definitely not who I'd want little girls in this country to look up to!"
p606
aa(lp607
S'negative'
p608
aS'And the first to have her naked pictures posted all of over the internet'
p609
aa(lp610
S'positive'
p611
aS'Lucky man there   Trump.\\nMay God bless and god speed to you all in America.'
p612
aa(lp613
S'positive'
p614
aS'It\'s really kinda neat looking back to a post from 2 day ago... When you liberals were mocking us... I hope the bitter taste of defeat just sits in your mouth for months..\\n Donald J Trump is the president of the United States.\\n I would say \'deal with it..\\   but it\'s just too much fun watching liberal heads explode.Don\'t trust anything that comes out of Obama\'s mouth... He is a Saul Alinsky anarchist . Liberals extend an olive branch with one hand while the other hand is hidden behind their back with a knife in it... What were you thinking? That we need to relearn this over and over again.... before it sinks in? Rush Limbaugh is right ...you don\'t even meet these people halfway.... You defeat them..... We won..They lost... We don\'t have to do anything they want or desire.. ... Now let\'s clean up the mess they made so they can destroy it all over again... I feel like I\'m a babysitter ...trying to keep  Brat idiot  children from burning the house down..."'
p615
aa(lp616
S'positive'
p617
aS'As Obama and Hillary have instructed us ... let us welcome our new President and his lovely wife in the spirit of Unity and Oneness.'
p618
aa(lp619
S'positive'
p620
aS'\\Donald Trump\'s Contract With The American Voter.\\"\\n\\nWhat follows is my 100-day action plan to Make America Great Again. It is a contract between myself and the American voter \\\\u2014 and begins with restoring honesty  accountability and change to Washington\\n\\nTherefore  on the first day of my term of office  my administration will immediately pursue the following six measures to clean up the corruption and special interest collusion in Washington  DC:\\n\\n* FIRST  propose a Constitutional Amendment to impose term limits on all members of Congress;\\n\\n* SECOND  a hiring freeze on all federal employees to reduce federal workforce through attrition (exempting military  public safety  and public health);\\n\\n* THIRD  a requirement that for every new federal regulation  two existing regulations must be eliminated;\\n\\n* FOURTH  a 5 year-ban on White House and Congressional officials becoming lobbyists after they leave government service;\\n\\n* FIFTH  a lifetime ban on White House officials lobbying on behalf of a foreign government;\\n\\n* SIXTH  a complete ban on foreign lobbyists raising money for American elections.\\n\\nOn the same day  I will begin taking the following 7 actions to protect American workers:\\n\\n* FIRST  I will announce my intention to renegotiate NAFTA or withdraw from the deal under Article 2205\\n\\n* SECOND  I will announce our withdrawal from the Trans-Pacific Partnership\\n\\n* THIRD  I will direct my Secretary of the Treasury to label China a currency manipulator\\n\\n* FOURTH  I will direct the Secretary of Commerce and U.S. Trade Representative to identify all foreign trading abuses that unfairly impact American workers and direct them to use every tool under American and international law to end those abuses immediately\\n\\n* FIFTH  I will lift the restrictions on the production of $50 trillion dollars\' worth of job-producing American energy reserves  including shale  oil  natural gas and clean coal.\\n\\n* SIXTH  lift the Obama-Clinton roadblocks and allow vital energy infrastructure projects  like the Keystone Pipeline  to move forward\\n\\n* SEVENTH  cancel billions in payments to U.N. climate change programs and use the money to fix America\'s water and environmental infrastructure\\n\\nAdditionally  on the first day  I will take the following five actions to restore security and the constitutional rule of law:\\n\\n* FIRST  cancel every unconstitutional executive action  memorandum and order issued by President Obama\\n\\n* SECOND  begin the process of selecting a replacement for Justice Scalia from one of the 20 judges on my list  who will uphold and defend the Constitution of the United States\\n\\n* THIRD  cancel all federal funding to Sanctuary Cities\\n\\n* FOURTH  begin removing the more than 2 million criminal illegal immigrants from the country and cancel visas to foreign countries that won\'t take them back\\n\\n* FIFTH  suspend immigration from terror-prone regions where vetting cannot safely occur. All vetting of people coming into our country will be considered extreme vetting.\\n\\nNext  I will work with Congress to introduce the following broader legislative measures and fight for their passage within the first 100 days of my Administration:\\n\\nMiddle Class Tax Relief And Simplification Act. An economic plan designed to grow the economy 4% per year and create at least 25 million new jobs through massive tax reduction and simplification  in combination with trade reform  regulatory relief  and lifting the restrictions on American energy. The largest tax reductions are for the middle class. A middle-class family with 2 children will get a 35% tax cut. The current number of brackets will be reduced from 7 to 3  and tax forms will likewise be greatly simplified. The business rate will be lowered from 35 to 15 percent  and the trillions of dollars of American corporate money overseas can now be brought back at a 10 perce"'
p621
aa(lp622
S'positive'
p623
aS"WONDERFUL to have a new First Lady who was actually born a female -- unlike oBama's husband  Michael LaVaughn Robinson.   3:)"
p624
aa(lp625
S'negative'
p626
aS'This makes me want to vomit. I bet Michelle wants to vomit too.'
p627
aa(lp628
S'negative'
p629
aS'Emelin Alvarez why does she look like a Siamese cat?!'
p630
aa(lp631
S'negative'
p632
aS"Where's he birth certificate??? I want her papers!!!!"
p633
aa(lp634
S'positive'
p635
aS"I am amused at the asinine comments.  People...put on your big girl panties (or your big-boy boxers) and understand that we voted...and under the Constitution Mr. Trump is our President-Elect....and will be our President for 4 years.  Period.  If you want to cause yourself ulcers and create violence for 4 years - have a party.  Be miserable.  OR you could do something positive for yourself and look towards the next election and try to legally change things - maybe get involved with your party?  Spewing crap and lies isn't going to change the facts.  You must be miserable!"
p636
aa(lp637
S'neutral'
p638
aS'What CNN ? A SOMEWHAT positive news story???? Your Clinton Foundation Funds must have dried up !'
p639
aa(lp640
S'negative'
p641
aS'Shameful .... Please no one invite them to anything ....'
p642
aa(lp643
S'positive'
p644
aS'Beautiful  intelligent  graceful and elegant. Wonderful.'
p645
aa(lp646
S'negative'
p647
aS'And the first first lady to work in the US illegally \\\\ud83d\\\\udc4f \\\\ud83d\\\\udc4f'
p648
aa(lp649
S'neutral'
p650
aS'Will Michelle Obama be writing all of her speeches?'
p651
aa(lp652
S'negative'
p653
aS"The hypocrisy here is unbelievable!!!   Republicans claim to be sooo conservative in their views.  They expressed disapproval over Michelle Obama's very conservative dress just because she had bare arms and now they approve of a woman who has posed completely nude for money!   They have zero integrity and will say anything and compromise anything to further their agenda.  I am completely disappointed with CNN for their coverage of the election.  Trump and his team kept crying foul by the media but every single time I turned on CNN  I either saw Trump speaking or Kellyann Conway or Scottie what's her name or Gina what's her name or any number of the always angry  always hot headed  Trump women supporters.  Yes Van Jones  Gloria and David were there sometimes but I didn't see them nearly as much until the end of the campaign.  It was always Donald Trump airtime!  Since you guys love your polls so much  why don't you take a good hard look at the amount of airtime spent talking about Trump compared to Hillary!!!!  I already know the answer.  Well you helped to create the monster so sit back  enjoy the show for the next four years and watch as the disaster unfolds!"
p654
aa(lp655
S'negative'
p656
aS'I would not use the term \\First Lady\\" more like first bimbo."'
p657
aa(lp658
S'positive'
p659
aS'T \\\\u2764 R \\\\u2764 U \\\\u2764 M \\\\u2764 P will make America great again!'
p660
aa(lp661
S'positive'
p662
aS'So much hatred  just listen to yourselves! Sadly  hateful comments were made 8 years ago as well. We just never learn  do we?  \\He who is without sin  cast the first stone\\".  Must have a whole lot of perfect people here....nope! Only one was perfect and that was Jesus Christ. Consider your own mistakes  errors in judgment  before picking up those stones.  Pray for America  after all  we are America! Whether this president succeeds or fails  affects us all. And yes  I defended President Obama and Mrs Obama 8 years ago when hatred raised its ugly head. \\\\ud83c\\\\uddfa\\\\ud83c\\\\uddf8"'
p663
aa(lp664
S'negative'
p665
aS'Trashy first lady or better first tramp what a joke'
p666
aa(lp667
S'negative'
p668
aS"She is not my first lady. Her shitbag husband isn't my president."
p669
aa(lp670
S'negative'
p671
aS'Maybe she will pose nude for the White House right.'
p672
aa(lp673
S'negative'
p674
aS"This is no first lady never will be a first lady. One thing is standing by your husband is what we should do  but standing by your biggot  racist  rappist etc husband that doesn't make you 1st lady. \\nThis is all about power to both of them  nothing more.  Hope next month he will be impeached after he is labeled as a sex offender in the case of that young lady he rapped!!!"
p675
aa(lp676
S'negative'
p677
aS"Not yet she isn't. Michelle Obama is my first lady."
p678
aa(lp679
S'negative'
p680
aS'Her replacement just graduated high school. tick tick tick tick...'
p681
aa(lp682
S'negative'
p683
aS'That is not what I evisioned a first lady to be.  And you pissed a fiit when Michelle showed her arms.  #NOTMYFIRSTLADY'
p684
aa(lp685
S'negative'
p686
aS'Get what u vote for...welcome to the White House tramp.'
p687
aa(lp688
S'negative'
p689
aS'This should be the first immigrant Trump should deport.'
p690
aa(lp691
S'positive'
p692
aS'MELANIA HAS MORE CLASS THAN   MICHAEL WILL EVER HAVE.'
p693
aa(lp694
S'negative'
p695
aS"She will probably be one of the hottest first ladies.  Haha.  But having an ex nude model for first lady is not something to be proud of and no I'm not a Hillary supporter but I didn't vote Trump either."
p696
aa(lp697
S'negative'
p698
aS'Naked on a bear skin rug in handcuffs? Not your role model  kids.'
p699
aa(lp700
S'negative'
p701
aS"I want a first lady that doesn't finger her cootch!!"
p702
aa(lp703
S'negative'
p704
aS'Certainly  our country says anyone can grow up and be President but they must be real CITIZENS not a foreign born \\model\\"  especially from the Russian areas.  I wonder how long Trumpf will keep her now that hundreds of Republican ladies will want to bed him...."'
p705
aa(lp706
S'negative'
p707
aS'Such a wonderful role model for young women....NOT!!! \\\\ud83d\\\\ude21'
p708
aa(lp709
S'positive'
p710
aS"At least we are sure she's an actual female. Bonus."
p711
aa(lp712
S'negative'
p713
aS'Eewww ! Just burn the sheets after she leave the Whitehouse. \\n#tactless'
p714
aa(lp715
S'negative'
p716
aS'We have already met her completely--through her nude photos.  She is such a disgrace and insult to the position.  She will never be called First Lady by me and I would hope many  many more Americans.'
p717
aa(lp718
S'negative'
p719
aS'And the first nude lady to live in the White House. \\\\ud83d\\\\ude21'
p720
aa(lp721
S'negative'
p722
aS"A mistress. stripper and nude model who is here illegally with an anchor baby.   A real shame that this is who follows the most educated  well spoken  classy First Lady we've had."
p723
aa(lp724
S'negative'
p725
aS'A mail order bride that poses nude...How respectable!!'
p726
aa(lp727
S'negative'
p728
aS'And the first one to have bare it all for the public!!'
p729
aa(lp730
S'negative'
p731
aS'#notmyfirstlady  #notmypresident  #yescalifornia  #calexit'
p732
aa(lp733
S'negative'
p734
aS'She is artificial inside and out.  No depth  personality or opinion.  Just arm candy for a rich man.  What an example for our daughters.   I am ashamed she is following Michelle.'
p735
aa(lp736
S'negative'
p737
aS'Ugh... Not my President  not my first lady... Not my circus...'
p738
aa(lp739
S'negative'
p740
aS"8t occurred to me that the president will be on welfare.  He will get free housing  food  transportation  and even household help all because he  is too smart to pay income tax like the rest of us.  Couple that with the lifetime secret service protection  this is the most expensive 'public servant' ever.  Plus he is unpolished and unrefined.  Probably wants to put his name on the White House."
p741
aa(lp742
S'negative'
p743
aS'She looks like an alien with those weird eyes\\\\ud83d\\\\ude02\\\\ud83d\\\\ude02\\\\ud83d\\\\ude02\\\\ud83d\\\\ude02\\\\ud83d\\\\ude02\\\\ud83d\\\\ude02\\\\ud83d\\\\ude02\\\\ud83d\\\\ude0b\\\\ud83d\\\\ude02'
p744
aa(lp745
S'positive'
p746
aS'Beautiful I look forward to getting to know her better.'
p747
aa(lp748
S'negative'
p749
aS"First time I'm seeing a third class First lady \\\\ud83d\\\\ude02"
p750
aa(lp751
S'negative'
p752
aS"She isn't the First Lady \\\\ud83d\\\\ude02\\\\ud83d\\\\ude02\\\\ud83d\\\\ude02"
p753
aa(lp754
S'positive'
p755
aS'HOT HOT HOT !!!!!!!!!!!!!! TRUMP WON - GET OVER IT!!!!!!!!!!!!!'
p756
aa(lp757
S'positive'
p758
aS'Will make a brilliant first lady \\\\ud83d\\\\udc83 \\\\ud83c\\\\udf79 \\\\ud83c\\\\udf78'
p759
aa(lp760
S'negative'
p761
aS'Foreign born wife but yet he wants to ban all other'
p762
aa(lp763
S'negative'
p764
aS'Not my First Lady \\\\ud83d\\\\ude21\\\\ud83d\\\\ude21\\\\ud83d\\\\ude21'
p765
aa(lp766
S'positive'
p767
aS'Beautiful sucsessuful First Lady  America should be proud!'
p768
aa(lp769
S'negative'
p770
aS'She represents everything I hate in a woman \\\\ud83d\\\\ude1e'
p771
aa(lp772
S'negative'
p773
aS'Trump must have paid her family lots of money to get her'
p774
aa(lp775
S'negative'
p776
aS"Meet her??? I've seen her naked! What's left to know??"
p777
aa(lp778
S'negative'
p779
aS'She doesn\'t deserve to even have the title \\first lady\\". \\\\ud83d\\\\udc4e"'
p780
aa(lp781
S'negative'
p782
aS'Hope she will wear clothes  is she even a citizen yet?'
p783
aa(lp784
S'neutral'
p785
aS'Yay we share the same birthday  April 26! \\\\ud83c\\\\udf89\\\\ud83c\\\\udf89'
p786
aa(lp787
S'negative'
p788
aS'My nightmare is coming true on Jan 20  2017....Nooooooo!.'
p789
aa(lp790
S'negative'
p791
aS'She is a great role model \\\\ud83d\\\\ude02\\\\ud83d\\\\ude02\\\\ud83d\\\\ude02\\\\ud83d\\\\ude02 THOT'
p792
aa(lp793
S'negative'
p794
aS'YOU PEOPLE HAVE NOTHING BETTER TO DO THAT SPEAK DOWN OF ANOTHER PERSON!!! YOU SHOULD BE ASHAME OF YOUESELVES!!! YOU GET ME SICK!!!!'
p795
aa(lp796
S'negative'
p797
aS"Not nude!! I was born nude and I'm still asking for forgiveness! Smh"
p798
aa(lp799
S'positive'
p800
aS'She will be a hot First Lady for sure \\\\ud83d\\\\ude0d\\\\ud83d\\\\ude18'
p801
aa(lp802
S'neutral'
p803
aS'Thank you for posting this because I forgot to unfollow you.'
p804
aa(lp805
S'negative'
p806
aS'NOT MY CIRCUS NOT MY MONKEYS  NOT MY PRESIDENT!!!!!'
p807
aa(lp808
S'positive'
p809
aS'Stop being mean  this could be your family member.  Give these people a chance  no one wanted to give Obama a chance and it was okay.'
p810
aa(lp811
S'positive'
p812
aS"Love my beautiful smart first lady.don't hate her because she's successful"
p813
aa(lp814
S'negative'
p815
aS'And the first to proudly have nude pics of her in the internet. Class.'
p816
aa(lp817
S'negative'
p818
aS'Maybe she can get some people to help educate her and improve her English.  She is hard to understand'
p819
aa(lp820
S'negative'
p821
aS'NOPE!!!!!!!!!!  WRONG....message to the world....! Seen her nude body.....where the beef!!!!'
p822
aa(lp823
S'negative'
p824
aS'Well   she found some clothes to wear.  Good for miss nudypants.'
p825
aa(lp826
S'negative'
p827
aS'If Donald Trump will start the deportation process he needs to start with her.  Secondly  she needs to learn English!!!  Smh'
p828
aa(lp829
S'negative'
p830
aS"We've already seen and met her. ALL of her!  Such a disgrace!"
p831
aa(lp832
S'positive'
p833
aS"Its UNFORTUNATE the Hillary worshippers are still calling President elect Trump the NAMES that LYING CORRUPT Hillary called him.  TRUMP IS NOT racist. He employs thousands of Hispanics  colored and other minorities because he WANTS those LEGAL immigrants to achieve the AMERICAN DREAM. TRUMP SUPPORTS LEGAL IMMIGRATION  HE SUPPORTS hard working Americans AND he wants to bring jobs to thise who don't have jobs.  Trump is NOT a sexist  NOR is he a misogynistic person. He IS a good guy that has a heart for a FREE CONSTITUTIONAL AMERICA. Liberals  THE CAMPAIGN IS OVER.  Hillary's campaign LIES have fed you GARBAGE. MR. Trump IS our President elect and he wants to see America STAY A FREE Constitutional  STRONG country  AND we ALL WANT to see America be made great again."
p834
aa(lp835
S'negative'
p836
aS'She will never have the charisma and the charm as Mitchell  Obama.  She  was and and she always will be a trophy wife number 3  with no brain and no beauty.'
p837
aa(lp838
S'negative'
p839
aS'Not mine ... Lets be honest   she only married Trump for his money.'
p840
aa(lp841
S'negative'
p842
aS"NO !!  CNN didn't you want to share some of our first ladies nude pics ??"
p843
aa(lp844
S'negative'
p845
aS'No in no way does she or can she  come up to first lady standards.  If she did she would not be married to Trump!'
p846
aa(lp847
S'negative'
p848
aS'Not my first lady.  She will never represent me our my country.  Trump was right the system is rigged.'
p849
aa(lp850
S'neutral'
p851
aS'Who was the first? Bill Clinton?  \\\\ud83d\\\\ude02\\\\ud83d\\\\ude02\\\\ud83d\\\\ude02'
p852
aa(lp853
S'positive'
p854
aS'Beautiful First Lady!!~  Praying for your family!!~'
p855
aa(lp856
S'negative'
p857
aS'If her. Son. Said.  What husband  did.   insulting. Women.  The disable eand. Etc What she do to her son!!     Son. Look he. Hwas.  Lost.  Or something.  '
p858
aa(lp859
S'negative'
p860
aS"Uhh...No thanks. I'm good!  Thanks for asking though."
p861
aa(lp862
S'neutral'
p863
aS'Can you imagine how heads would explode if Mrs. Obama  had nude pictures on Facebook..'
p864
aa(lp865
S'negative'
p866
aS'Sorry....your backround failed.  Be educated and learn to be like Michelle Obama & Hillary Clinton'
p867
aa(lp868
S'negative'
p869
aS'No thank you.  Not someone that can be looked up to.'
p870
aa(lp871
S'neutral'
p872
aS'Want to a not only healthy but life with full energy and a lot of happiness?? \\nhttp://bit.ly/2eUX5Vd'
p873
aa(lp874
S'negative'
p875
aS'De evolution.  From a smart first lady to a woman that was a gold digger and took off her clothes for a living'
p876
aa(lp877
S'neutral'
p878
aS'https://funds.gofundme.com/dashboard/help-me-reunite-with-my-daughter27\\n\\nPLEASE HELP ME EVERYTHING COUNTS GOD BLESS YOU'
p879
aa(lp880
S'negative'
p881
aS"PLEASE SHARE AND LET'S STOP FASCISM IN OUR COUNTRY. March with us in Los Angeles against Trump! Saturday  10AM.\\nHere the link for more information.\\nhttps://www.facebook.com/events/224117368008292/"
p882
aa.